(dp0
S'NEW CALEDONIA'
p1
S'NC'
p2
sS'BAHAMAS'
p3
S'BS'
p4
sS'TOGO'
p5
S'TG'
p6
sS'VENEZUELA, BOLIVARIAN REPUBLIC OF'
p7
S'VE'
p8
sS'GUINEA-BISSAU'
p9
S'GW'
p10
sS'BARBADOS'
p11
S'BB'
p12
sS'ALGERIA'
p13
S'DZ'
p14
sS'OMAN'
p15
S'OM'
p16
sS'SENEGAL'
p17
S'SN'
p18
sS'RWANDA'
p19
S'RW'
p20
sS'NIUE'
p21
S'NU'
p22
sS'PERU'
p23
S'PE'
p24
sS'ANGUILLA'
p25
S'AI'
p26
sS'AZERBAIJAN'
p27
S'AZ'
p28
sS'UNITED STATES'
p29
S'US'
p30
sS'GIBRALTAR'
p31
S'GI'
p32
sS'SWAZILAND'
p33
S'SZ'
p34
sS'VANUATU'
p35
S'VU'
p36
sS'IRAQ'
p37
S'IQ'
p38
sS'ECUADOR'
p39
S'EC'
p40
sS'UZBEKISTAN'
p41
S'UZ'
p42
sS'FRENCH SOUTHERN TERRITORIES'
p43
S'TF'
p44
sS'GAMBIA'
p45
S'GM'
p46
sS'WALLIS AND FUTUNA'
p47
S'WF'
p48
sS'FRANCE'
p49
S'FR'
p50
sS'TRINIDAD AND TOBAGO'
p51
S'TT'
p52
sS'REUNION'
p53
S'RE'
p54
sS'SRI LANKA'
p55
S'LK'
p56
sS'CROATIA'
p57
S'HR'
p58
sS'TURKS AND CAICOS ISLANDS'
p59
S'TC'
p60
sS'NETHERLANDS'
p61
S'NL'
p62
sS'LIBYA'
p63
S'LY'
p64
sS'SOUTH AFRICA'
p65
S'ZA'
p66
sS'INDONESIA'
p67
S'ID'
p68
sS'ANTARCTICA'
p69
S'AQ'
p70
sS'MOZAMBIQUE'
p71
S'MZ'
p72
sS'SOUTH SUDAN'
p73
S'SS'
p74
sS'COLOMBIA'
p75
S'CO'
p76
sS'MARTINIQUE'
p77
S'MQ'
p78
sS'EQUATORIAL GUINEA'
p79
S'GQ'
p80
sS'MONGOLIA'
p81
S'MN'
p82
sS'CONGO'
p83
S'CG'
p84
sS'MALI'
p85
S'ML'
p86
sS'SLOVAKIA'
p87
S'SK'
p88
sS'TAJIKISTAN'
p89
S'TJ'
p90
sS'PAKISTAN'
p91
S'PK'
p92
sS'BOLIVIA, PLURINATIONAL STATE OF'
p93
S'BO'
p94
sS'SAINT LUCIA'
p95
S'LC'
p96
sS'SAINT KITTS AND NEVIS'
p97
S'KN'
p98
sS'UNITED STATES MINOR OUTLYING ISLANDS'
p99
S'UM'
p100
sS'SLOVENIA'
p101
S'SI'
p102
sS'IRELAND'
p103
S'IE'
p104
sS'GRENADA'
p105
S'GD'
p106
sS'BANGLADESH'
p107
S'BD'
p108
sS'ESTONIA'
p109
S'EE'
p110
sS'ICELAND'
p111
S'IS'
p112
sS'MACEDONIA, THE FORMER YUGOSLAV REPUBLIC OF'
p113
S'MK'
p114
sS'HOLY SEE (VATICAN CITY STATE)'
p115
S'VA'
p116
sS'BOSNIA AND HERZEGOVINA'
p117
S'BA'
p118
sS'MICRONESIA, FEDERATED STATES OF'
p119
S'FM'
p120
sS'MONACO'
p121
S'MC'
p122
sS'ISRAEL'
p123
S'IL'
p124
sS'MEXICO'
p125
S'MX'
p126
sS'TUVALU'
p127
S'TV'
p128
sS'SERBIA'
p129
S'RS'
p130
sS'CAPE VERDE'
p131
S'CV'
p132
sS'SAINT HELENA, ASCENSION AND TRISTAN DA CUNHA'
p133
S'SH'
p134
sS'THAILAND'
p135
S'TH'
p136
sS'BONAIRE, SINT EUSTATIUS AND SABA'
p137
S'BQ'
p138
sS'NIGERIA'
p139
S'NG'
p140
sS'ALBANIA'
p141
S'AL'
p142
sS'CZECH REPUBLIC'
p143
S'CZ'
p144
sS'BRITISH INDIAN OCEAN TERRITORY'
p145
S'IO'
p146
sS'GUERNSEY'
p147
S'GG'
p148
sS'HONG KONG'
p149
S'HK'
p150
sS'MALAWI'
p151
S'MW'
p152
sS'AFGHANISTAN'
p153
S'AF'
p154
sS'SAUDI ARABIA'
p155
S'SA'
p156
sS'ITALY'
p157
S'IT'
p158
sS'SURINAME'
p159
S'SR'
p160
sS'PHILIPPINES'
p161
S'PH'
p162
sS'SOUTH GEORGIA AND THE SOUTH SANDWICH ISLANDS'
p163
S'GS'
p164
sS'TAIWAN, PROVINCE OF CHINA'
p165
S'TW'
p166
sS'BERMUDA'
p167
S'BM'
p168
sS'FRENCH GUIANA'
p169
S'GF'
p170
sS'ARGENTINA'
p171
S'AR'
p172
sS'CYPRUS'
p173
S'CY'
p174
sS'BAHRAIN'
p175
S'BH'
p176
sS'CAYMAN ISLANDS'
p177
S'KY'
p178
sS"KOREA, DEMOCRATIC PEOPLE'S REPUBLIC OF"
p179
S'KP'
p180
sS'BURKINA FASO'
p181
S'BF'
p182
sS'LIBERIA'
p183
S'LR'
p184
sS'NAURU'
p185
S'NR'
p186
sS'FIJI'
p187
S'FJ'
p188
sS'ROMANIA'
p189
S'RO'
p190
sS'EL SALVADOR'
p191
S'SV'
p192
sS'POLAND'
p193
S'PL'
p194
sS'INDIA'
p195
S'IN'
p196
sS'SOLOMON ISLANDS'
p197
S'SB'
p198
sS'CHRISTMAS ISLAND'
p199
S'CX'
p200
sS'HUNGARY'
p201
S'HU'
p202
sS'SPAIN'
p203
S'ES'
p204
sS'FAROE ISLANDS'
p205
S'FO'
p206
sS'UNITED ARAB EMIRATES'
p207
S'AE'
p208
sS'MALTA'
p209
S'MT'
p210
sS'ANDORRA'
p211
S'AD'
p212
sS'DJIBOUTI'
p213
S'DJ'
p214
sS'GREENLAND'
p215
S'GL'
p216
sS'MARSHALL ISLANDS'
p217
S'MH'
p218
sS'JAPAN'
p219
S'JP'
p220
sS'PARAGUAY'
p221
S'PY'
p222
sS'DOMINICAN REPUBLIC'
p223
S'DO'
p224
sS'VIRGIN ISLANDS, BRITISH'
p225
S'VG'
p226
sS'DOMINICA'
p227
S'DM'
p228
sS'GHANA'
p229
S'GH'
p230
sS'ALAND ISLANDS'
p231
S'AX'
p232
sS'SAMOA'
p233
S'WS'
p234
sS'NORTHERN MARIANA ISLANDS'
p235
S'MP'
p236
sS'BHUTAN'
p237
S'BT'
p238
sS'GUINEA'
p239
S'GN'
p240
sS'IRAN, ISLAMIC REPUBLIC OF'
p241
S'IR'
p242
sS'FRENCH POLYNESIA'
p243
S'PF'
p244
sS'TUNISIA'
p245
S'TN'
p246
sS'GUATEMALA'
p247
S'GT'
p248
sS'BURUNDI'
p249
S'BI'
p250
sS'GUADELOUPE'
p251
S'GP'
p252
sS'ERITREA'
p253
S'ER'
p254
sS'PORTUGAL'
p255
S'PT'
p256
sS'MONTENEGRO'
p257
S'ME'
p258
sS'ARUBA'
p259
S'AW'
p260
sS'CAMBODIA'
p261
S'KH'
p262
sS'KIRIBATI'
p263
S'KI'
p264
sS'SAINT BARTHELEMY'
p265
S'BL'
p266
sS'BENIN'
p267
S'BJ'
p268
sS'PALESTINE, STATE OF'
p269
S'PS'
p270
sS'COSTA RICA'
p271
S'CR'
p272
sS'ETHIOPIA'
p273
S'ET'
p274
sS'SWEDEN'
p275
S'SE'
p276
sS'HEARD ISLAND AND MCDONALD ISLANDS'
p277
S'HM'
p278
sS'TIMOR-LESTE'
p279
S'TL'
p280
sS'ZAMBIA'
p281
S'ZM'
p282
sS'NORWAY'
p283
S'NO'
p284
sS'QATAR'
p285
S'QA'
p286
sS'PALAU'
p287
S'PW'
p288
sS'NORFOLK ISLAND'
p289
S'NF'
p290
sS'DENMARK'
p291
S'DK'
p292
sS'NEPAL'
p293
S'NP'
p294
sS'PAPUA NEW GUINEA'
p295
S'PG'
p296
sS'ZIMBABWE'
p297
S'ZW'
p298
sS'GABON'
p299
S'GA'
p300
sS'YEMEN'
p301
S'YE'
p302
sS'AUSTRALIA'
p303
S'AU'
p304
sS'PITCAIRN'
p305
S'PN'
p306
sS'KUWAIT'
p307
S'KW'
p308
sS'CENTRAL AFRICAN REPUBLIC'
p309
S'CF'
p310
sS'ARMENIA'
p311
S'AM'
p312
sS'COMOROS'
p313
S'KM'
p314
sS'TONGA'
p315
S'TO'
p316
sS'HONDURAS'
p317
S'HN'
p318
sS'MAYOTTE'
p319
S'YT'
p320
sS'VIET NAM'
p321
S'VN'
p322
sS'ANTIGUA AND BARBUDA'
p323
S'AG'
p324
sS'SWITZERLAND'
p325
S'CH'
p326
sS'MOLDOVA, REPUBLIC OF'
p327
S'MD'
p328
sS'CANADA'
p329
S'CA'
p330
sS'JAMAICA'
p331
S'JM'
p332
sS'SINGAPORE'
p333
S'SG'
p334
sS'EGYPT'
p335
S'EG'
p336
sS'CUBA'
p337
S'CU'
p338
sS'LEBANON'
p339
S'LB'
p340
sS'SAINT PIERRE AND MIQUELON'
p341
S'PM'
p342
sS'SIERRA LEONE'
p343
S'SL'
p344
sS'COCOS (KEELING) ISLANDS'
p345
S'CC'
p346
sS'AUSTRIA'
p347
S'AT'
p348
sS'COOK ISLANDS'
p349
S'CK'
p350
sS'SEYCHELLES'
p351
S'SC'
p352
sS'ANGOLA'
p353
S'AO'
p354
sS'MALAYSIA'
p355
S'MY'
p356
sS'TANZANIA, UNITED REPUBLIC OF'
p357
S'TZ'
p358
sS'SAINT VINCENT AND THE GRENADINES'
p359
S'VC'
p360
sS'RUSSIAN FEDERATION'
p361
S'RU'
p362
sS'NEW ZEALAND'
p363
S'NZ'
p364
sS'KYRGYZSTAN'
p365
S'KG'
p366
sS'WESTERN SAHARA'
p367
S'EH'
p368
sS'BOUVET ISLAND'
p369
S'BV'
p370
sS'BRUNEI DARUSSALAM'
p371
S'BN'
p372
sS'LESOTHO'
p373
S'LS'
p374
sS'SYRIAN ARAB REPUBLIC'
p375
S'SY'
p376
sS'KENYA'
p377
S'KE'
p378
sS"COTE D'IVOIRE"
p379
S'CI'
p380
sS'JERSEY'
p381
S'JE'
p382
sS'UKRAINE'
p383
S'UA'
p384
sS'CHAD'
p385
S'TD'
p386
sS'SUDAN'
p387
S'SD'
p388
sS'LITHUANIA'
p389
S'LT'
p390
sS'UNITED KINGDOM'
p391
S'GB'
p392
sS'MOROCCO'
p393
S'MA'
p394
sS'GEORGIA'
p395
S'GE'
p396
sS'UGANDA'
p397
S'UG'
p398
sS"LAO PEOPLE'S DEMOCRATIC REPUBLIC"
p399
S'LA'
p400
sS'BOTSWANA'
p401
S'BW'
p402
sS'BRAZIL'
p403
S'BR'
p404
sS'MADAGASCAR'
p405
S'MG'
p406
sS'VIRGIN ISLANDS, U.S.'
p407
S'VI'
p408
sS'GERMANY'
p409
S'DE'
p410
sS'PUERTO RICO'
p411
S'PR'
p412
sS'NIGER'
p413
S'NE'
p414
sS'NICARAGUA'
p415
S'NI'
p416
sS'SAINT MARTIN (FRENCH PART)'
p417
S'MF'
p418
sS'SOMALIA'
p419
S'SO'
p420
sS'KAZAKHSTAN'
p421
S'KZ'
p422
sS'MALDIVES'
p423
S'MV'
p424
sS'MONTSERRAT'
p425
S'MS'
p426
sS'LATVIA'
p427
S'LV'
p428
sS'CHINA'
p429
S'CN'
p430
sS'GUYANA'
p431
S'GY'
p432
sS'BELGIUM'
p433
S'BE'
p434
sS'SAN MARINO'
p435
S'SM'
p436
sS'GUAM'
p437
S'GU'
p438
sS'AMERICAN SAMOA'
p439
S'AS'
p440
sS'MAURITIUS'
p441
S'MU'
p442
sS'LIECHTENSTEIN'
p443
S'LI'
p444
sS'NAMIBIA'
p445
S'NA'
p446
sS'GREECE'
p447
S'GR'
p448
sS'BELIZE'
p449
S'BZ'
p450
sS'BELARUS'
p451
S'BY'
p452
sS'TOKELAU'
p453
S'TK'
p454
sS'KOREA, REPUBLIC OF'
p455
S'KR'
p456
sS'SVALBARD AND JAN MAYEN'
p457
S'SJ'
p458
sS'LUXEMBOURG'
p459
S'LU'
p460
sS'MACAO'
p461
S'MO'
p462
sS'ISLE OF MAN'
p463
S'IM'
p464
sS'CURACAO'
p465
S'CW'
p466
sS'MAURITANIA'
p467
S'MR'
p468
sS'FINLAND'
p469
S'FI'
p470
sS'JORDAN'
p471
S'JO'
p472
sS'SINT MAARTEN (DUTCH PART)'
p473
S'SX'
p474
sS'TURKEY'
p475
S'TR'
p476
sS'SAO TOME AND PRINCIPE'
p477
S'ST'
p478
sS'CONGO, THE DEMOCRATIC REPUBLIC OF THE'
p479
S'CD'
p480
sS'TURKMENISTAN'
p481
S'TM'
p482
sS'MYANMAR'
p483
S'MM'
p484
sS'URUGUAY'
p485
S'UY'
p486
sS'PANAMA'
p487
S'PA'
p488
sS'FALKLAND ISLANDS (MALVINAS)'
p489
S'FK'
p490
sS'CHILE'
p491
S'CL'
p492
sS'HAITI'
p493
S'HT'
p494
sS'CAMEROON'
p495
S'CM'
p496
sS'BULGARIA'
p497
S'BG'
p498
s.